target datalayout = "e-m:e-p270:32:32-p271:32:32-p272:64:64-i64:64-i128:128-f80:128-n8:16:32:64-S128"
target triple = "x86_64-pc-linux-gnu"

%class.TransTableL = type { %class.TransTable, i32, i32, i32, i32, i32, i32, %"struct.TransTableL::pageStatsType", [8192 x %"struct.TransTableL::aggrType"], [12 x [4 x ptr]], [12 x [4 x ptr]], ptr, ptr, %"struct.TransTableL::harvestedType", i32, i32 }
%class.TransTable = type { ptr }
%"struct.TransTableL::pageStatsType" = type { i32, i32, i32, i32, i32 }
%"struct.TransTableL::aggrType" = type { [4 x i32], [4 x [4 x i32]] }
%"struct.TransTableL::harvestedType" = type { i32, [1000 x ptr] }

; Function Attrs: mustprogress nounwind uwtable
define void @_ZN11TransTableL16SetMemoryMaximumEi(ptr noundef nonnull align 8 dereferenceable(664216) %0, i32 noundef %1) unnamed_addr #5 align 2 {
  %3 = alloca ptr, align 8
  %4 = alloca i32, align 4
  %5 = alloca double, align 8
  store ptr %0, ptr %3, align 8
  store i32 %1, ptr %4, align 4
  %6 = load ptr, ptr %3, align 8
  store double 0x40B8D76000000000, ptr %5, align 8
  %7 = load i32, ptr %4, align 4
  %8 = mul nsw i32 1024, %7
  %9 = sitofp i32 %8 to double
  %10 = load double, ptr %5, align 8
  %11 = fdiv double %9, %10
  %12 = fptosi double %11 to i32
  %13 = getelementptr inbounds nuw %class.TransTableL, ptr %6, i32 0, i32 4
  store i32 %12, ptr %13, align 4
  ret void
}